target datalayout = "e-m:e-p270:32:32-p271:32:32-p272:64:64-i64:64-i128:128-f80:128-n8:16:32:64-S128"
target triple = "x86_64-pc-linux-gnu"

%struct.uv_tcp_s = type { ptr, ptr, i32, ptr, %struct.uv__queue, %union.anon, ptr, i32, i64, ptr, ptr, ptr, ptr, %struct.uv__io_s, %struct.uv__queue, %struct.uv__queue, ptr, i32, i32, ptr }
%union.anon = type { [4 x ptr] }
%struct.uv__io_s = type { ptr, %struct.uv__queue, %struct.uv__queue, i32, i32, i32 }
%struct.uv__queue = type { ptr, ptr }
%union.__CONST_SOCKADDR_ARG = type { ptr }
%struct.sockaddr = type { i16, [14 x i8] }
%struct.sockaddr_in6 = type { i16, i16, i32, %struct.in6_addr, i32 }
%struct.in6_addr = type { %union.anon.0 }
%union.anon.0 = type { [4 x i32] }
%union.uv__sockaddr = type { %struct.sockaddr_in6 }
%union.__SOCKADDR_ARG = type { ptr }
%struct.sockaddr_in = type { i16, i16, %struct.in_addr, [8 x i8] }
%struct.in_addr = type { i32 }

; Function Attrs: nounwind uwtable
define internal i32 @maybe_bind_socket(i32 noundef %0) #0 {
  %2 = alloca i32, align 4
  %3 = alloca i32, align 4
  %4 = alloca %union.uv__sockaddr, align 4
  %5 = alloca i32, align 4
  %6 = alloca %union.__SOCKADDR_ARG, align 8
  %7 = alloca i32, align 4
  %8 = alloca %union.__CONST_SOCKADDR_ARG, align 8
  store i32 %0, ptr %3, align 4
  call void @llvm.lifetime.start.p0(i64 28, ptr %4) #8
  call void @llvm.lifetime.start.p0(i64 4, ptr %5) #8
  store i32 28, ptr %5, align 4
  call void @llvm.memset.p0.i64(ptr align 4 %4, i8 0, i64 28, i1 false)
  %9 = load i32, ptr %3, align 4
  store ptr %4, ptr %6, align 8
  %10 = getelementptr inbounds nuw %union.__SOCKADDR_ARG, ptr %6, i32 0, i32 0
  %11 = load ptr, ptr %10, align 8
  %12 = call i32 @getsockname(i32 noundef %9, ptr %11, ptr noundef %5) #8
  %13 = icmp ne i32 %12, 0
  br i1 %13, label %14, label %18

14:                                               ; preds = %1
  %15 = call ptr @__errno_location() #9
  %16 = load i32, ptr %15, align 4
  %17 = sub nsw i32 0, %16
  store i32 %17, ptr %2, align 4
  store i32 1, ptr %7, align 4
  br label %54

18:                                               ; preds = %1
  %19 = getelementptr inbounds nuw %struct.sockaddr, ptr %4, i32 0, i32 0
  %20 = load i16, ptr %19, align 4
  %21 = zext i16 %20 to i32
  %22 = icmp eq i32 %21, 2
  br i1 %22, label %23, label %30

23:                                               ; preds = %18
  %24 = getelementptr inbounds nuw %struct.sockaddr_in, ptr %4, i32 0, i32 1
  %25 = load i16, ptr %24, align 2
  %26 = zext i16 %25 to i32
  %27 = icmp ne i32 %26, 0
  br i1 %27, label %28, label %29

28:                                               ; preds = %23
  store i32 0, ptr %2, align 4
  store i32 1, ptr %7, align 4
  br label %54

29:                                               ; preds = %23
  br label %30

30:                                               ; preds = %29, %18
  %31 = getelementptr inbounds nuw %struct.sockaddr, ptr %4, i32 0, i32 0
  %32 = load i16, ptr %31, align 4
  %33 = zext i16 %32 to i32
  %34 = icmp eq i32 %33, 10
  br i1 %34, label %35, label %42

35:                                               ; preds = %30
  %36 = getelementptr inbounds nuw %struct.sockaddr_in6, ptr %4, i32 0, i32 1
  %37 = load i16, ptr %36, align 2
  %38 = zext i16 %37 to i32
  %39 = icmp ne i32 %38, 0
  br i1 %39, label %40, label %41

40:                                               ; preds = %35
  store i32 0, ptr %2, align 4
  store i32 1, ptr %7, align 4
  br label %54

41:                                               ; preds = %35
  br label %42

42:                                               ; preds = %41, %30
  %43 = load i32, ptr %3, align 4
  store ptr %4, ptr %8, align 8
  %44 = load i32, ptr %5, align 4
  %45 = getelementptr inbounds nuw %union.__CONST_SOCKADDR_ARG, ptr %8, i32 0, i32 0
  %46 = load ptr, ptr %45, align 8
  %47 = call i32 @bind(i32 noundef %43, ptr %46, i32 noundef %44) #8
  %48 = icmp ne i32 %47, 0
  br i1 %48, label %49, label %53

49:                                               ; preds = %42
  %50 = call ptr @__errno_location() #9
  %51 = load i32, ptr %50, align 4
  %52 = sub nsw i32 0, %51
  store i32 %52, ptr %2, align 4
  store i32 1, ptr %7, align 4
  br label %54

53:                                               ; preds = %42
  store i32 0, ptr %2, align 4
  store i32 1, ptr %7, align 4
  br label %54

54:                                               ; preds = %53, %49, %40, %28, %14
  call void @llvm.lifetime.end.p0(i64 4, ptr %5) #8
  call void @llvm.lifetime.end.p0(i64 28, ptr %4) #8
  %55 = load i32, ptr %2, align 4
  ret i32 %55
}

; Function Attrs: nounwind uwtable
define internal i32 @new_socket(ptr noundef %0, i32 noundef %1, i32 noundef %2) #0 {
  %4 = alloca i32, align 4
  %5 = alloca ptr, align 8
  %6 = alloca i32, align 4
  %7 = alloca i32, align 4
  %8 = alloca i32, align 4
  %9 = alloca i32, align 4
  %10 = alloca i32, align 4
  store ptr %0, ptr %5, align 8
  store i32 %1, ptr %6, align 4
  store i32 %2, ptr %7, align 4
  call void @llvm.lifetime.start.p0(i64 4, ptr %8) #8
  call void @llvm.lifetime.start.p0(i64 4, ptr %9) #8
  %11 = load i32, ptr %6, align 4
  %12 = call i32 @uv__socket(i32 noundef %11, i32 noundef 1, i32 noundef 0)
  store i32 %12, ptr %8, align 4
  %13 = load i32, ptr %8, align 4
  %14 = icmp slt i32 %13, 0
  br i1 %14, label %15, label %17

15:                                               ; preds = %3
  %16 = load i32, ptr %8, align 4
  store i32 %16, ptr %4, align 4
  store i32 1, ptr %10, align 4
  br label %36

17:                                               ; preds = %3
  %18 = load ptr, ptr %5, align 8
  %19 = load i32, ptr %8, align 4
  %20 = load i32, ptr %7, align 4
  %21 = call i32 @uv__stream_open(ptr noundef %18, i32 noundef %19, i32 noundef %20)
  store i32 %21, ptr %9, align 4
  %22 = load i32, ptr %9, align 4
  %23 = icmp ne i32 %22, 0
  br i1 %23, label %24, label %28

24:                                               ; preds = %17
  %25 = load i32, ptr %8, align 4
  %26 = call i32 @uv__close(i32 noundef %25)
  %27 = load i32, ptr %9, align 4
  store i32 %27, ptr %4, align 4
  store i32 1, ptr %10, align 4
  br label %36

28:                                               ; preds = %17
  %29 = load i32, ptr %7, align 4
  %30 = and i32 %29, 8192
  %31 = icmp ne i32 %30, 0
  br i1 %31, label %32, label %35

32:                                               ; preds = %28
  %33 = load i32, ptr %8, align 4
  %34 = call i32 @maybe_bind_socket(i32 noundef %33)
  store i32 %34, ptr %4, align 4
  store i32 1, ptr %10, align 4
  br label %36

35:                                               ; preds = %28
  store i32 0, ptr %4, align 4
  store i32 1, ptr %10, align 4
  br label %36

36:                                               ; preds = %35, %32, %24, %15
  call void @llvm.lifetime.end.p0(i64 4, ptr %9) #8
  call void @llvm.lifetime.end.p0(i64 4, ptr %8) #8
  %37 = load i32, ptr %4, align 4
  ret i32 %37
}

; Function Attrs: nounwind uwtable
define internal i32 @maybe_new_socket(ptr noundef %0, i32 noundef %1, i32 noundef %2) #0 {
  %4 = alloca i32, align 4
  %5 = alloca ptr, align 8
  %6 = alloca i32, align 4
  %7 = alloca i32, align 4
  %8 = alloca i32, align 4
  %9 = alloca i32, align 4
  %10 = alloca i32, align 4
  store ptr %0, ptr %5, align 8
  store i32 %1, ptr %6, align 4
  store i32 %2, ptr %7, align 4
  call void @llvm.lifetime.start.p0(i64 4, ptr %8) #8
  call void @llvm.lifetime.start.p0(i64 4, ptr %9) #8
  %11 = load i32, ptr %6, align 4
  %12 = icmp eq i32 %11, 0
  br i1 %12, label %13, label %14

13:                                               ; preds = %3
  br label %46

14:                                               ; preds = %3
  %15 = load ptr, ptr %5, align 8
  %16 = getelementptr inbounds nuw %struct.uv_tcp_s, ptr %15, i32 0, i32 13
  %17 = getelementptr inbounds nuw %struct.uv__io_s, ptr %16, i32 0, i32 5
  %18 = load i32, ptr %17, align 8
  store i32 %18, ptr %8, align 4
  %19 = load i32, ptr %8, align 4
  %20 = icmp eq i32 %19, -1
  br i1 %20, label %21, label %26

21:                                               ; preds = %14
  %22 = load ptr, ptr %5, align 8
  %23 = load i32, ptr %6, align 4
  %24 = load i32, ptr %7, align 4
  %25 = call i32 @new_socket(ptr noundef %22, i32 noundef %23, i32 noundef %24)
  store i32 %25, ptr %4, align 4
  store i32 1, ptr %10, align 4
  br label %52

26:                                               ; preds = %14
  %27 = load i32, ptr %7, align 4
  %28 = and i32 %27, 8192
  %29 = icmp ne i32 %28, 0
  br i1 %29, label %31, label %30

30:                                               ; preds = %26
  br label %46

31:                                               ; preds = %26
  %32 = load ptr, ptr %5, align 8
  %33 = getelementptr inbounds nuw %struct.uv_tcp_s, ptr %32, i32 0, i32 7
  %34 = load i32, ptr %33, align 8
  %35 = and i32 %34, 8192
  %36 = icmp ne i32 %35, 0
  br i1 %36, label %37, label %38

37:                                               ; preds = %31
  br label %46

38:                                               ; preds = %31
  %39 = load i32, ptr %8, align 4
  %40 = call i32 @maybe_bind_socket(i32 noundef %39)
  store i32 %40, ptr %9, align 4
  %41 = load i32, ptr %9, align 4
  %42 = icmp ne i32 %41, 0
  br i1 %42, label %43, label %45

43:                                               ; preds = %38
  %44 = load i32, ptr %9, align 4
  store i32 %44, ptr %4, align 4
  store i32 1, ptr %10, align 4
  br label %52

45:                                               ; preds = %38
  br label %46

46:                                               ; preds = %45, %37, %30, %13
  %47 = load i32, ptr %7, align 4
  %48 = load ptr, ptr %5, align 8
  %49 = getelementptr inbounds nuw %struct.uv_tcp_s, ptr %48, i32 0, i32 7
  %50 = load i32, ptr %49, align 8
  %51 = or i32 %50, %47
  store i32 %51, ptr %49, align 8
  store i32 0, ptr %4, align 4
  store i32 1, ptr %10, align 4
  br label %52

52:                                               ; preds = %46, %43, %21
  call void @llvm.lifetime.end.p0(i64 4, ptr %9) #8
  call void @llvm.lifetime.end.p0(i64 4, ptr %8) #8
  %53 = load i32, ptr %4, align 4
  ret i32 %53
}

; Function Attrs: nounwind uwtable
define hidden i32 @uv__tcp_bind(ptr noundef %0, ptr noundef %1, i32 noundef %2, i32 noundef %3) #0 {
  %5 = alloca i32, align 4
  %6 = alloca ptr, align 8
  %7 = alloca ptr, align 8
  %8 = alloca i32, align 4
  %9 = alloca i32, align 4
  %10 = alloca i32, align 4
  %11 = alloca i32, align 4
  %12 = alloca i32, align 4
  %13 = alloca %union.__CONST_SOCKADDR_ARG, align 8
  store ptr %0, ptr %6, align 8
  store ptr %1, ptr %7, align 8
  store i32 %2, ptr %8, align 4
  store i32 %3, ptr %9, align 4
  call void @llvm.lifetime.start.p0(i64 4, ptr %10) #8
  call void @llvm.lifetime.start.p0(i64 4, ptr %11) #8
  %14 = load i32, ptr %9, align 4
  %15 = and i32 %14, 1
  %16 = icmp ne i32 %15, 0
  br i1 %16, label %17, label %24

17:                                               ; preds = %4
  %18 = load ptr, ptr %7, align 8
  %19 = getelementptr inbounds nuw %struct.sockaddr, ptr %18, i32 0, i32 0
  %20 = load i16, ptr %19, align 2
  %21 = zext i16 %20 to i32
  %22 = icmp ne i32 %21, 10
  br i1 %22, label %23, label %24

23:                                               ; preds = %17
  store i32 -22, ptr %5, align 4
  store i32 1, ptr %12, align 4
  br label %136

24:                                               ; preds = %17, %4
  %25 = load ptr, ptr %6, align 8
  %26 = load ptr, ptr %7, align 8
  %27 = getelementptr inbounds nuw %struct.sockaddr, ptr %26, i32 0, i32 0
  %28 = load i16, ptr %27, align 2
  %29 = zext i16 %28 to i32
  %30 = call i32 @maybe_new_socket(ptr noundef %25, i32 noundef %29, i32 noundef 0)
  store i32 %30, ptr %10, align 4
  %31 = load i32, ptr %10, align 4
  %32 = icmp ne i32 %31, 0
  br i1 %32, label %33, label %35

33:                                               ; preds = %24
  %34 = load i32, ptr %10, align 4
  store i32 %34, ptr %5, align 4
  store i32 1, ptr %12, align 4
  br label %136

35:                                               ; preds = %24
  store i32 1, ptr %11, align 4
  %36 = load ptr, ptr %6, align 8
  %37 = getelementptr inbounds nuw %struct.uv_tcp_s, ptr %36, i32 0, i32 13
  %38 = getelementptr inbounds nuw %struct.uv__io_s, ptr %37, i32 0, i32 5
  %39 = load i32, ptr %38, align 8
  %40 = call i32 @setsockopt(i32 noundef %39, i32 noundef 1, i32 noundef 2, ptr noundef %11, i32 noundef 4) #8
  %41 = icmp ne i32 %40, 0
  br i1 %41, label %42, label %46

42:                                               ; preds = %35
  %43 = call ptr @__errno_location() #9
  %44 = load i32, ptr %43, align 4
  %45 = sub nsw i32 0, %44
  store i32 %45, ptr %5, align 4
  store i32 1, ptr %12, align 4
  br label %136

46:                                               ; preds = %35
  %47 = load i32, ptr %9, align 4
  %48 = and i32 %47, 2
  %49 = icmp ne i32 %48, 0
  br i1 %49, label %50, label %61

50:                                               ; preds = %46
  %51 = load ptr, ptr %6, align 8
  %52 = getelementptr inbounds nuw %struct.uv_tcp_s, ptr %51, i32 0, i32 13
  %53 = getelementptr inbounds nuw %struct.uv__io_s, ptr %52, i32 0, i32 5
  %54 = load i32, ptr %53, align 8
  %55 = call i32 @uv__sock_reuseport(i32 noundef %54)
  store i32 %55, ptr %10, align 4
  %56 = load i32, ptr %10, align 4
  %57 = icmp ne i32 %56, 0
  br i1 %57, label %58, label %60

58:                                               ; preds = %50
  %59 = load i32, ptr %10, align 4
  store i32 %59, ptr %5, align 4
  store i32 1, ptr %12, align 4
  br label %136

60:                                               ; preds = %50
  br label %61

61:                                               ; preds = %60, %46
  %62 = load ptr, ptr %7, align 8
  %63 = getelementptr inbounds nuw %struct.sockaddr, ptr %62, i32 0, i32 0
  %64 = load i16, ptr %63, align 2
  %65 = zext i16 %64 to i32
  %66 = icmp eq i32 %65, 10
  br i1 %66, label %67, label %83

67:                                               ; preds = %61
  %68 = load i32, ptr %9, align 4
  %69 = and i32 %68, 1
  %70 = icmp ne i32 %69, 0
  %71 = zext i1 %70 to i32
  store i32 %71, ptr %11, align 4
  %72 = load ptr, ptr %6, align 8
  %73 = getelementptr inbounds nuw %struct.uv_tcp_s, ptr %72, i32 0, i32 13
  %74 = getelementptr inbounds nuw %struct.uv__io_s, ptr %73, i32 0, i32 5
  %75 = load i32, ptr %74, align 8
  %76 = call i32 @setsockopt(i32 noundef %75, i32 noundef 41, i32 noundef 26, ptr noundef %11, i32 noundef 4) #8
  %77 = icmp eq i32 %76, -1
  br i1 %77, label %78, label %82

78:                                               ; preds = %67
  %79 = call ptr @__errno_location() #9
  %80 = load i32, ptr %79, align 4
  %81 = sub nsw i32 0, %80
  store i32 %81, ptr %5, align 4
  store i32 1, ptr %12, align 4
  br label %136

82:                                               ; preds = %67
  br label %83

83:                                               ; preds = %82, %61
  %84 = call ptr @__errno_location() #9
  store i32 0, ptr %84, align 4
  %85 = load ptr, ptr %6, align 8
  %86 = getelementptr inbounds nuw %struct.uv_tcp_s, ptr %85, i32 0, i32 13
  %87 = getelementptr inbounds nuw %struct.uv__io_s, ptr %86, i32 0, i32 5
  %88 = load i32, ptr %87, align 8
  %89 = load ptr, ptr %7, align 8
  store ptr %89, ptr %13, align 8
  %90 = load i32, ptr %8, align 4
  %91 = getelementptr inbounds nuw %union.__CONST_SOCKADDR_ARG, ptr %13, i32 0, i32 0
  %92 = load ptr, ptr %91, align 8
  %93 = call i32 @bind(i32 noundef %88, ptr %92, i32 noundef %90) #8
  store i32 %93, ptr %10, align 4
  %94 = load i32, ptr %10, align 4
  %95 = icmp eq i32 %94, -1
  br i1 %95, label %96, label %109

96:                                               ; preds = %83
  %97 = call ptr @__errno_location() #9
  %98 = load i32, ptr %97, align 4
  %99 = icmp ne i32 %98, 98
  br i1 %99, label %100, label %109

100:                                              ; preds = %96
  %101 = call ptr @__errno_location() #9
  %102 = load i32, ptr %101, align 4
  %103 = icmp eq i32 %102, 97
  br i1 %103, label %104, label %105

104:                                              ; preds = %100
  store i32 -22, ptr %5, align 4
  store i32 1, ptr %12, align 4
  br label %136

105:                                              ; preds = %100
  %106 = call ptr @__errno_location() #9
  %107 = load i32, ptr %106, align 4
  %108 = sub nsw i32 0, %107
  store i32 %108, ptr %5, align 4
  store i32 1, ptr %12, align 4
  br label %136

109:                                              ; preds = %96, %83
  %110 = load i32, ptr %10, align 4
  %111 = icmp eq i32 %110, -1
  br i1 %111, label %112, label %116

112:                                              ; preds = %109
  %113 = call ptr @__errno_location() #9
  %114 = load i32, ptr %113, align 4
  %115 = sub nsw i32 0, %114
  br label %117

116:                                              ; preds = %109
  br label %117

117:                                              ; preds = %116, %112
  %118 = phi i32 [ %115, %112 ], [ 0, %116 ]
  %119 = load ptr, ptr %6, align 8
  %120 = getelementptr inbounds nuw %struct.uv_tcp_s, ptr %119, i32 0, i32 17
  store i32 %118, ptr %120, align 8
  %121 = load ptr, ptr %6, align 8
  %122 = getelementptr inbounds nuw %struct.uv_tcp_s, ptr %121, i32 0, i32 7
  %123 = load i32, ptr %122, align 8
  %124 = or i32 %123, 8192
  store i32 %124, ptr %122, align 8
  %125 = load ptr, ptr %7, align 8
  %126 = getelementptr inbounds nuw %struct.sockaddr, ptr %125, i32 0, i32 0
  %127 = load i16, ptr %126, align 2
  %128 = zext i16 %127 to i32
  %129 = icmp eq i32 %128, 10
  br i1 %129, label %130, label %135

130:                                              ; preds = %117
  %131 = load ptr, ptr %6, align 8
  %132 = getelementptr inbounds nuw %struct.uv_tcp_s, ptr %131, i32 0, i32 7
  %133 = load i32, ptr %132, align 8
  %134 = or i32 %133, 4194304
  store i32 %134, ptr %132, align 8
  br label %135

135:                                              ; preds = %130, %117
  store i32 0, ptr %5, align 4
  store i32 1, ptr %12, align 4
  br label %136

136:                                              ; preds = %135, %105, %104, %78, %58, %42, %33, %23
  call void @llvm.lifetime.end.p0(i64 4, ptr %11) #8
  call void @llvm.lifetime.end.p0(i64 4, ptr %10) #8
  %137 = load i32, ptr %5, align 4
  ret i32 %137
}