; Function Attrs: nounwind uwtable
define hidden i32 @uv__tcp_bind(ptr noundef %0, ptr noundef %1, i32 noundef %2, i32 noundef %3) local_unnamed_addr #0 {
  %5 = alloca i32, align 4
  call void @llvm.lifetime.start.p0(i64 4, ptr nonnull %5) #7
  %6 = and i32 %3, 1
  %.not30 = icmp eq i32 %6, 0
  %.pre = load i16, ptr %1, align 2
  br i1 %.not30, label %8, label %7

7:                                                ; preds = %4
  %.not = icmp eq i16 %.pre, 10
  br i1 %.not, label %.thread, label %maybe_new_socket.exit

8:                                                ; preds = %4
  %9 = zext i16 %.pre to i32
  %10 = icmp eq i16 %.pre, 0
  br i1 %10, label %22, label %.thread

.thread:                                          ; preds = %7, %8
  %11 = phi i32 [ %9, %8 ], [ 10, %7 ]
  %12 = getelementptr inbounds nuw i8, ptr %0, i64 184
  %13 = load i32, ptr %12, align 8
  %14 = icmp eq i32 %13, -1
  br i1 %14, label %15, label %22

15:                                               ; preds = %.thread
  %16 = tail call i32 @uv__socket(i32 noundef range(i32 1, 65536) %11, i32 noundef 1, i32 noundef 0) #7
  %17 = icmp slt i32 %16, 0
  br i1 %17, label %maybe_new_socket.exit, label %18

18:                                               ; preds = %15
  %19 = tail call i32 @uv__stream_open(ptr noundef nonnull %0, i32 noundef %16, i32 noundef range(i32 0, 49153) 0) #7
  %.not.i.i = icmp eq i32 %19, 0
  br i1 %.not.i.i, label %22, label %20

20:                                               ; preds = %18
  %21 = tail call i32 @uv__close(i32 noundef %16) #7
  br label %maybe_new_socket.exit

22:                                               ; preds = %8, %.thread, %18
  store i32 1, ptr %5, align 4
  %23 = getelementptr inbounds nuw i8, ptr %0, i64 184
  %24 = load i32, ptr %23, align 8
  %25 = call i32 @setsockopt(i32 noundef %24, i32 noundef 1, i32 noundef 2, ptr noundef nonnull %5, i32 noundef 4) #7
  %.not27 = icmp eq i32 %25, 0
  br i1 %.not27, label %30, label %26

26:                                               ; preds = %22
  %27 = tail call ptr @__errno_location() #8
  %28 = load i32, ptr %27, align 4
  %29 = sub nsw i32 0, %28
  br label %maybe_new_socket.exit

30:                                               ; preds = %22
  %31 = and i32 %3, 2
  %.not28 = icmp eq i32 %31, 0
  br i1 %.not28, label %35, label %32

32:                                               ; preds = %30
  %33 = load i32, ptr %23, align 8
  %34 = call i32 @uv__sock_reuseport(i32 noundef %33) #7
  %.not29 = icmp eq i32 %34, 0
  br i1 %.not29, label %35, label %maybe_new_socket.exit

35:                                               ; preds = %32, %30
  %36 = load i16, ptr %1, align 2
  %37 = icmp eq i16 %36, 10
  br i1 %37, label %38, label %46

38:                                               ; preds = %35
  store i32 %6, ptr %5, align 4
  %39 = load i32, ptr %23, align 8
  %40 = call i32 @setsockopt(i32 noundef %39, i32 noundef 41, i32 noundef 26, ptr noundef nonnull %5, i32 noundef 4) #7
  %41 = icmp eq i32 %40, -1
  br i1 %41, label %42, label %46

42:                                               ; preds = %38
  %43 = tail call ptr @__errno_location() #8
  %44 = load i32, ptr %43, align 4
  %45 = sub nsw i32 0, %44
  br label %maybe_new_socket.exit

46:                                               ; preds = %38, %35
  %47 = tail call ptr @__errno_location() #8
  store i32 0, ptr %47, align 4
  %48 = load i32, ptr %23, align 8
  %49 = call i32 @bind(i32 noundef %48, ptr nonnull %1, i32 noundef %2) #7
  %50 = icmp eq i32 %49, -1
  br i1 %50, label %51, label %.critedge

51:                                               ; preds = %46
  %52 = load i32, ptr %47, align 4
  switch i32 %52, label %53 [
    i32 98, label %.critedge
    i32 97, label %maybe_new_socket.exit
  ]

53:                                               ; preds = %51
  %54 = sub nsw i32 0, %52
  br label %maybe_new_socket.exit

.critedge:                                        ; preds = %51, %46
  %55 = phi i32 [ 0, %46 ], [ -98, %51 ]
  %56 = getelementptr inbounds nuw i8, ptr %0, i64 232
  store i32 %55, ptr %56, align 8
  %57 = getelementptr inbounds nuw i8, ptr %0, i64 88
  %58 = load i32, ptr %57, align 8
  %59 = or i32 %58, 8192
  store i32 %59, ptr %57, align 8
  %60 = load i16, ptr %1, align 2
  %61 = icmp eq i16 %60, 10
  br i1 %61, label %62, label %maybe_new_socket.exit

62:                                               ; preds = %.critedge
  %63 = or i32 %58, 4202496
  store i32 %63, ptr %57, align 8
  br label %maybe_new_socket.exit

maybe_new_socket.exit:                            ; preds = %20, %15, %.critedge, %62, %51, %32, %7, %53, %42, %26
  %.0 = phi i32 [ %29, %26 ], [ %45, %42 ], [ %54, %53 ], [ -22, %7 ], [ %34, %32 ], [ -22, %51 ], [ 0, %62 ], [ 0, %.critedge ], [ %19, %20 ], [ %16, %15 ]
  call void @llvm.lifetime.end.p0(i64 4, ptr nonnull %5) #7
  ret i32 %.0
}